target datalayout = "e-m:e-p270:32:32-p271:32:32-p272:64:64-i64:64-i128:128-f80:128-n8:16:32:64-S128"
target triple = "x86_64-pc-linux-gnu"

@proto_pn_rsi = internal global i32 0, align 4

; Function Attrs: null_pointer_is_valid sspstrong uwtable
define hidden void @init_pn_rsi(i32 noundef %0) #0 {
  %2 = alloca i32, align 4
  %3 = alloca ptr, align 8
  store i32 %0, ptr %2, align 4
  call void @llvm.lifetime.start.p0(i64 8, ptr %3) #4
  %4 = load i32, ptr %2, align 4
  store i32 %4, ptr @proto_pn_rsi, align 4
  %5 = load i32, ptr %2, align 4
  call void @proto_register_field_array(i32 noundef %5, ptr noundef @init_pn_rsi.hf, i32 noundef 45)
  call void @proto_register_subtree_array(ptr noundef @init_pn_rsi.ett, i32 noundef 11)
  %6 = load i32, ptr @proto_pn_rsi, align 4
  %7 = call ptr @expert_register_protocol(i32 noundef %6)
  store ptr %7, ptr %3, align 8
  %8 = load ptr, ptr %3, align 8
  call void @expert_register_field_array(ptr noundef %8, ptr noundef @init_pn_rsi.ei, i32 noundef 1)
  call void @register_init_routine(ptr noundef @pn_rsi_reassemble_init)
  call void @llvm.lifetime.end.p0(i64 8, ptr %3) #4
  ret void
}